target datalayout = "e-m:e-p270:32:32-p271:32:32-p272:64:64-i64:64-i128:128-f80:128-n8:16:32:64-S128"
target triple = "x86_64-pc-linux-gnu"

%"class.duckdb::Pipeline" = type { %"class.duckdb::enable_shared_from_this.8", ptr, i8, %"struct.std::atomic.6", %"class.duckdb::optional_ptr", %"class.duckdb::vector.12", %"class.duckdb::optional_ptr", %"class.duckdb::unique_ptr", %"class.duckdb::vector.20", %"class.duckdb::vector.20", i64, %"class.std::mutex", %"class.std::multiset" }
%"class.duckdb::enable_shared_from_this.8" = type { %"class.duckdb::weak_ptr.9" }
%"class.duckdb::weak_ptr.9" = type { %"class.std::weak_ptr.10" }
%"class.std::weak_ptr.10" = type { %"class.std::__weak_ptr.11" }
%"class.std::__weak_ptr.11" = type { ptr, %"class.std::__weak_count" }
%"class.std::__weak_count" = type { ptr }
%"struct.std::atomic.6" = type { %"struct.std::__atomic_base.7" }
%"struct.std::__atomic_base.7" = type { i8 }
%"class.duckdb::vector.12" = type { %"class.std::vector.13" }
%"class.std::vector.13" = type { %"struct.std::_Vector_base.14" }
%"struct.std::_Vector_base.14" = type { %"struct.std::_Vector_base<std::reference_wrapper<duckdb::PhysicalOperator>, std::allocator<std::reference_wrapper<duckdb::PhysicalOperator>>>::_Vector_impl" }
%"struct.std::_Vector_base<std::reference_wrapper<duckdb::PhysicalOperator>, std::allocator<std::reference_wrapper<duckdb::PhysicalOperator>>>::_Vector_impl" = type { %"struct.std::_Vector_base<std::reference_wrapper<duckdb::PhysicalOperator>, std::allocator<std::reference_wrapper<duckdb::PhysicalOperator>>>::_Vector_impl_data" }
%"struct.std::_Vector_base<std::reference_wrapper<duckdb::PhysicalOperator>, std::allocator<std::reference_wrapper<duckdb::PhysicalOperator>>>::_Vector_impl_data" = type { ptr, ptr, ptr }
%"class.duckdb::optional_ptr" = type { ptr }
%"class.duckdb::unique_ptr" = type { %"class.std::unique_ptr" }
%"class.std::unique_ptr" = type { %"struct.std::__uniq_ptr_data" }
%"struct.std::__uniq_ptr_data" = type { %"class.std::__uniq_ptr_impl" }
%"class.std::__uniq_ptr_impl" = type { %"class.std::tuple" }
%"class.std::tuple" = type { %"struct.std::_Tuple_impl" }
%"struct.std::_Tuple_impl" = type { %"struct.std::_Head_base.19" }
%"struct.std::_Head_base.19" = type { ptr }
%"class.duckdb::vector.20" = type { %"class.std::vector.21" }
%"class.std::vector.21" = type { %"struct.std::_Vector_base.22" }
%"struct.std::_Vector_base.22" = type { %"struct.std::_Vector_base<duckdb::weak_ptr<duckdb::Pipeline>, std::allocator<duckdb::weak_ptr<duckdb::Pipeline>>>::_Vector_impl" }
%"struct.std::_Vector_base<duckdb::weak_ptr<duckdb::Pipeline>, std::allocator<duckdb::weak_ptr<duckdb::Pipeline>>>::_Vector_impl" = type { %"struct.std::_Vector_base<duckdb::weak_ptr<duckdb::Pipeline>, std::allocator<duckdb::weak_ptr<duckdb::Pipeline>>>::_Vector_impl_data" }
%"struct.std::_Vector_base<duckdb::weak_ptr<duckdb::Pipeline>, std::allocator<duckdb::weak_ptr<duckdb::Pipeline>>>::_Vector_impl_data" = type { ptr, ptr, ptr }
%"class.std::mutex" = type { %"class.std::__mutex_base" }
%"class.std::__mutex_base" = type { %union.pthread_mutex_t }
%union.pthread_mutex_t = type { %struct.__pthread_mutex_s }
%struct.__pthread_mutex_s = type { i32, i32, i32, i32, i32, i16, i16, %struct.__pthread_internal_list }
%struct.__pthread_internal_list = type { ptr, ptr }
%"class.std::multiset" = type { %"class.std::_Rb_tree" }
%"class.std::_Rb_tree" = type { %"struct.std::_Rb_tree<unsigned long, unsigned long, std::_Identity<unsigned long>, std::less<unsigned long>>::_Rb_tree_impl" }
%"struct.std::_Rb_tree<unsigned long, unsigned long, std::_Identity<unsigned long>, std::less<unsigned long>>::_Rb_tree_impl" = type { [8 x i8], %"struct.std::_Rb_tree_header" }
%"struct.std::_Rb_tree_header" = type { %"struct.std::_Rb_tree_node_base", i64 }
%"struct.std::_Rb_tree_node_base" = type { i32, ptr, ptr, ptr }
%"class.duckdb::optional_ptr.91" = type { ptr }
%"struct.std::__detail::_Hash_node_base" = type { ptr }
%"struct.std::__detail::_Prime_rehash_policy" = type { float, i64 }
%"class.duckdb::weak_ptr.343" = type { %"class.std::weak_ptr.344" }
%"class.std::weak_ptr.344" = type { %"class.std::__weak_ptr.345" }
%"class.std::__weak_ptr.345" = type { ptr, %"class.std::__weak_count" }
%"class.duckdb::optional_ptr.355" = type { ptr }
%"class.duckdb::ThreadContext" = type { %"class.duckdb::OperatorProfiler", %"class.duckdb::unique_ptr.263" }
%"class.duckdb::OperatorProfiler" = type { ptr, i8, %"class.std::unordered_set.275", %"class.duckdb::BaseProfiler", %"class.duckdb::optional_ptr.355", %"class.std::unordered_map.356" }
%"class.std::unordered_set.275" = type { %"class.std::_Hashtable.276" }
%"class.std::_Hashtable.276" = type { ptr, i64, %"struct.std::__detail::_Hash_node_base", i64, %"struct.std::__detail::_Prime_rehash_policy", ptr }
%"class.duckdb::BaseProfiler" = type <{ %"class.std::chrono::time_point", %"class.std::chrono::time_point", i8, [7 x i8] }>
%"class.std::chrono::time_point" = type { %"class.std::chrono::duration" }
%"class.std::chrono::duration" = type { i64 }
%"class.std::unordered_map.356" = type { %"class.std::_Hashtable.357" }
%"class.std::_Hashtable.357" = type { ptr, i64, %"struct.std::__detail::_Hash_node_base", i64, %"struct.std::__detail::_Prime_rehash_policy", ptr }
%"class.duckdb::unique_ptr.263" = type { %"class.std::unique_ptr.264" }
%"class.std::unique_ptr.264" = type { %"struct.std::__uniq_ptr_data.265" }
%"struct.std::__uniq_ptr_data.265" = type { %"class.std::__uniq_ptr_impl.266" }
%"class.std::__uniq_ptr_impl.266" = type { %"class.std::tuple.267" }
%"class.std::tuple.267" = type { %"struct.std::_Tuple_impl.268" }
%"struct.std::_Tuple_impl.268" = type { %"struct.std::_Head_base.271" }
%"struct.std::_Head_base.271" = type { ptr }
%"class.duckdb::PhysicalOperator" = type { ptr, i8, %"class.duckdb::vector.165", %"class.duckdb::vector.171", i64, %"class.duckdb::unique_ptr.177", %"class.duckdb::unique_ptr.186", %"class.std::mutex" }
%"class.duckdb::vector.165" = type { %"class.std::vector.166" }
%"class.std::vector.166" = type { %"struct.std::_Vector_base.167" }
%"struct.std::_Vector_base.167" = type { %"struct.std::_Vector_base<duckdb::unique_ptr<duckdb::PhysicalOperator>, std::allocator<duckdb::unique_ptr<duckdb::PhysicalOperator>>>::_Vector_impl" }
%"struct.std::_Vector_base<duckdb::unique_ptr<duckdb::PhysicalOperator>, std::allocator<duckdb::unique_ptr<duckdb::PhysicalOperator>>>::_Vector_impl" = type { %"struct.std::_Vector_base<duckdb::unique_ptr<duckdb::PhysicalOperator>, std::allocator<duckdb::unique_ptr<duckdb::PhysicalOperator>>>::_Vector_impl_data" }
%"struct.std::_Vector_base<duckdb::unique_ptr<duckdb::PhysicalOperator>, std::allocator<duckdb::unique_ptr<duckdb::PhysicalOperator>>>::_Vector_impl_data" = type { ptr, ptr, ptr }
%"class.duckdb::vector.171" = type { %"class.std::vector.172" }
%"class.std::vector.172" = type { %"struct.std::_Vector_base.173" }
%"struct.std::_Vector_base.173" = type { %"struct.std::_Vector_base<duckdb::LogicalType, std::allocator<duckdb::LogicalType>>::_Vector_impl" }
%"struct.std::_Vector_base<duckdb::LogicalType, std::allocator<duckdb::LogicalType>>::_Vector_impl" = type { %"struct.std::_Vector_base<duckdb::LogicalType, std::allocator<duckdb::LogicalType>>::_Vector_impl_data" }
%"struct.std::_Vector_base<duckdb::LogicalType, std::allocator<duckdb::LogicalType>>::_Vector_impl_data" = type { ptr, ptr, ptr }
%"class.duckdb::unique_ptr.177" = type { %"class.std::unique_ptr.178" }
%"class.std::unique_ptr.178" = type { %"struct.std::__uniq_ptr_data.179" }
%"struct.std::__uniq_ptr_data.179" = type { %"class.std::__uniq_ptr_impl.180" }
%"class.std::__uniq_ptr_impl.180" = type { %"class.std::tuple.181" }
%"class.std::tuple.181" = type { %"struct.std::_Tuple_impl.182" }
%"struct.std::_Tuple_impl.182" = type { %"struct.std::_Head_base.185" }
%"struct.std::_Head_base.185" = type { ptr }
%"class.duckdb::unique_ptr.186" = type { %"class.std::unique_ptr.187" }
%"class.std::unique_ptr.187" = type { %"struct.std::__uniq_ptr_data.188" }
%"struct.std::__uniq_ptr_data.188" = type { %"class.std::__uniq_ptr_impl.189" }
%"class.std::__uniq_ptr_impl.189" = type { %"class.std::tuple.190" }
%"class.std::tuple.190" = type { %"struct.std::_Tuple_impl.191" }
%"struct.std::_Tuple_impl.191" = type { %"struct.std::_Head_base.194" }
%"struct.std::_Head_base.194" = type { ptr }
%"class.duckdb::vector.471" = type { %"class.std::vector.472" }
%"class.std::vector.472" = type { %"struct.std::_Vector_base.473" }
%"struct.std::_Vector_base.473" = type { %"struct.std::_Vector_base<unsigned long, std::allocator<unsigned long>>::_Vector_impl" }
%"struct.std::_Vector_base<unsigned long, std::allocator<unsigned long>>::_Vector_impl" = type { %"struct.std::_Vector_base<unsigned long, std::allocator<unsigned long>>::_Vector_impl_data" }
%"struct.std::_Vector_base<unsigned long, std::allocator<unsigned long>>::_Vector_impl_data" = type { ptr, ptr, ptr }
%"class.std::reference_wrapper.548" = type { ptr }
%"class.duckdb::InterruptState" = type { i8, %"class.duckdb::weak_ptr.343", %"class.duckdb::weak_ptr.723" }
%"class.duckdb::weak_ptr.723" = type { %"class.std::weak_ptr.724" }
%"class.std::weak_ptr.724" = type { %"class.std::__weak_ptr.725" }
%"class.std::__weak_ptr.725" = type { ptr, %"class.std::__weak_count" }
%"class.duckdb::PipelineExecutor" = type <{ ptr, %"class.duckdb::ThreadContext", %"class.duckdb::ExecutionContext", %"class.duckdb::vector.731", %"class.duckdb::vector.737", %"class.duckdb::unique_ptr.743", %"class.duckdb::unique_ptr.752", %"class.duckdb::InterruptState", %"class.duckdb::DataChunk", %"class.std::stack", i8, [3 x i8], i32, %"struct.duckdb::OperatorPartitionInfo", i8, i8, i8, i8, i8, [3 x i8], i64, i8, [7 x i8] }>
%"class.duckdb::ExecutionContext" = type { ptr, ptr, %"class.duckdb::optional_ptr.91" }
%"class.duckdb::vector.731" = type { %"class.std::vector.732" }
%"class.std::vector.732" = type { %"struct.std::_Vector_base.733" }
%"struct.std::_Vector_base.733" = type { %"struct.std::_Vector_base<duckdb::unique_ptr<duckdb::DataChunk>, std::allocator<duckdb::unique_ptr<duckdb::DataChunk>>>::_Vector_impl" }
%"struct.std::_Vector_base<duckdb::unique_ptr<duckdb::DataChunk>, std::allocator<duckdb::unique_ptr<duckdb::DataChunk>>>::_Vector_impl" = type { %"struct.std::_Vector_base<duckdb::unique_ptr<duckdb::DataChunk>, std::allocator<duckdb::unique_ptr<duckdb::DataChunk>>>::_Vector_impl_data" }
%"struct.std::_Vector_base<duckdb::unique_ptr<duckdb::DataChunk>, std::allocator<duckdb::unique_ptr<duckdb::DataChunk>>>::_Vector_impl_data" = type { ptr, ptr, ptr }
%"class.duckdb::vector.737" = type { %"class.std::vector.738" }
%"class.std::vector.738" = type { %"struct.std::_Vector_base.739" }
%"struct.std::_Vector_base.739" = type { %"struct.std::_Vector_base<duckdb::unique_ptr<duckdb::OperatorState>, std::allocator<duckdb::unique_ptr<duckdb::OperatorState>>>::_Vector_impl" }
%"struct.std::_Vector_base<duckdb::unique_ptr<duckdb::OperatorState>, std::allocator<duckdb::unique_ptr<duckdb::OperatorState>>>::_Vector_impl" = type { %"struct.std::_Vector_base<duckdb::unique_ptr<duckdb::OperatorState>, std::allocator<duckdb::unique_ptr<duckdb::OperatorState>>>::_Vector_impl_data" }
%"struct.std::_Vector_base<duckdb::unique_ptr<duckdb::OperatorState>, std::allocator<duckdb::unique_ptr<duckdb::OperatorState>>>::_Vector_impl_data" = type { ptr, ptr, ptr }
%"class.duckdb::unique_ptr.743" = type { %"class.std::unique_ptr.744" }
%"class.std::unique_ptr.744" = type { %"struct.std::__uniq_ptr_data.745" }
%"struct.std::__uniq_ptr_data.745" = type { %"class.std::__uniq_ptr_impl.746" }
%"class.std::__uniq_ptr_impl.746" = type { %"class.std::tuple.747" }
%"class.std::tuple.747" = type { %"struct.std::_Tuple_impl.748" }
%"struct.std::_Tuple_impl.748" = type { %"struct.std::_Head_base.751" }
%"struct.std::_Head_base.751" = type { ptr }
%"class.duckdb::unique_ptr.752" = type { %"class.std::unique_ptr.753" }
%"class.std::unique_ptr.753" = type { %"struct.std::__uniq_ptr_data.754" }
%"struct.std::__uniq_ptr_data.754" = type { %"class.std::__uniq_ptr_impl.755" }
%"class.std::__uniq_ptr_impl.755" = type { %"class.std::tuple.756" }
%"class.std::tuple.756" = type { %"struct.std::_Tuple_impl.757" }
%"struct.std::_Tuple_impl.757" = type { %"struct.std::_Head_base.760" }
%"struct.std::_Head_base.760" = type { ptr }
%"class.duckdb::DataChunk" = type { %"class.duckdb::vector.761", i64, i64, %"class.duckdb::vector.767" }
%"class.duckdb::vector.761" = type { %"class.std::vector.762" }
%"class.std::vector.762" = type { %"struct.std::_Vector_base.763" }
%"struct.std::_Vector_base.763" = type { %"struct.std::_Vector_base<duckdb::Vector, std::allocator<duckdb::Vector>>::_Vector_impl" }
%"struct.std::_Vector_base<duckdb::Vector, std::allocator<duckdb::Vector>>::_Vector_impl" = type { %"struct.std::_Vector_base<duckdb::Vector, std::allocator<duckdb::Vector>>::_Vector_impl_data" }
%"struct.std::_Vector_base<duckdb::Vector, std::allocator<duckdb::Vector>>::_Vector_impl_data" = type { ptr, ptr, ptr }
%"class.duckdb::vector.767" = type { %"class.std::vector.768" }
%"class.std::vector.768" = type { %"struct.std::_Vector_base.769" }
%"struct.std::_Vector_base.769" = type { %"struct.std::_Vector_base<duckdb::VectorCache, std::allocator<duckdb::VectorCache>>::_Vector_impl" }
%"struct.std::_Vector_base<duckdb::VectorCache, std::allocator<duckdb::VectorCache>>::_Vector_impl" = type { %"struct.std::_Vector_base<duckdb::VectorCache, std::allocator<duckdb::VectorCache>>::_Vector_impl_data" }
%"struct.std::_Vector_base<duckdb::VectorCache, std::allocator<duckdb::VectorCache>>::_Vector_impl_data" = type { ptr, ptr, ptr }
%"class.std::stack" = type { %"class.std::deque" }
%"class.std::deque" = type { %"class.std::_Deque_base" }
%"class.std::_Deque_base" = type { %"struct.std::_Deque_base<unsigned long, std::allocator<unsigned long>>::_Deque_impl" }
%"struct.std::_Deque_base<unsigned long, std::allocator<unsigned long>>::_Deque_impl" = type { %"struct.std::_Deque_base<unsigned long, std::allocator<unsigned long>>::_Deque_impl_data" }
%"struct.std::_Deque_base<unsigned long, std::allocator<unsigned long>>::_Deque_impl_data" = type { ptr, i64, %"struct.std::_Deque_iterator", %"struct.std::_Deque_iterator" }
%"struct.std::_Deque_iterator" = type { ptr, ptr, ptr, ptr }
%"struct.duckdb::OperatorPartitionInfo" = type { i8, %"class.duckdb::vector.471" }
%"class.__gnu_cxx::__normal_iterator.972" = type { ptr }

; Function Attrs: mustprogress nounwind uwtable
define linkonce_odr noundef nonnull align 8 dereferenceable(8) ptr @_ZNK9__gnu_cxx17__normal_iteratorIPKSt17reference_wrapperIN6duckdb16PhysicalOperatorEESt6vectorIS4_SaIS4_EEE4baseEv(ptr noundef nonnull align 8 dereferenceable(8) %0) #1 comdat align 2 {
  %2 = alloca ptr, align 8
  store ptr %0, ptr %2, align 8, !tbaa !992
  %3 = load ptr, ptr %2, align 8
  %4 = getelementptr inbounds nuw %"class.__gnu_cxx::__normal_iterator.972", ptr %3, i32 0, i32 0
  ret ptr %4
}

; Function Attrs: mustprogress nounwind uwtable
define linkonce_odr void @_ZN9__gnu_cxx17__normal_iteratorIPKSt17reference_wrapperIN6duckdb16PhysicalOperatorEESt6vectorIS4_SaIS4_EEEC2ERKS6_(ptr noundef nonnull align 8 dereferenceable(8) %0, ptr noundef nonnull align 8 dereferenceable(8) %1) unnamed_addr #1 comdat align 2 {
  %3 = alloca ptr, align 8
  %4 = alloca ptr, align 8
  store ptr %0, ptr %3, align 8, !tbaa !992
  store ptr %1, ptr %4, align 8, !tbaa !2880
  %5 = load ptr, ptr %3, align 8
  %6 = getelementptr inbounds nuw %"class.__gnu_cxx::__normal_iterator.972", ptr %5, i32 0, i32 0
  %7 = load ptr, ptr %4, align 8, !tbaa !2880
  %8 = load ptr, ptr %7, align 8, !tbaa !604
  store ptr %8, ptr %6, align 8, !tbaa !994
  ret void
}

; Function Attrs: inlinehint mustprogress nounwind uwtable
define linkonce_odr noundef zeroext i1 @_ZN9__gnu_cxxeqIPKSt17reference_wrapperIN6duckdb16PhysicalOperatorEESt6vectorIS4_SaIS4_EEEEbRKNS_17__normal_iteratorIT_T0_EESF_(ptr noundef nonnull align 8 dereferenceable(8) %0, ptr noundef nonnull align 8 dereferenceable(8) %1) #3 comdat {
  %3 = alloca ptr, align 8
  %4 = alloca ptr, align 8
  store ptr %0, ptr %3, align 8, !tbaa !992
  store ptr %1, ptr %4, align 8, !tbaa !992
  %5 = load ptr, ptr %3, align 8, !tbaa !992
  %6 = call noundef nonnull align 8 dereferenceable(8) ptr @_ZNK9__gnu_cxx17__normal_iteratorIPKSt17reference_wrapperIN6duckdb16PhysicalOperatorEESt6vectorIS4_SaIS4_EEE4baseEv(ptr noundef nonnull align 8 dereferenceable(8) %5) #24
  %7 = load ptr, ptr %6, align 8, !tbaa !604
  %8 = load ptr, ptr %4, align 8, !tbaa !992
  %9 = call noundef nonnull align 8 dereferenceable(8) ptr @_ZNK9__gnu_cxx17__normal_iteratorIPKSt17reference_wrapperIN6duckdb16PhysicalOperatorEESt6vectorIS4_SaIS4_EEE4baseEv(ptr noundef nonnull align 8 dereferenceable(8) %8) #24
  %10 = load ptr, ptr %9, align 8, !tbaa !604
  %11 = icmp eq ptr %7, %10
  ret i1 %11
}

; Function Attrs: mustprogress nounwind uwtable
define linkonce_odr ptr @_ZNKSt6vectorISt17reference_wrapperIN6duckdb16PhysicalOperatorEESaIS3_EE3endEv(ptr noundef nonnull align 8 dereferenceable(24) %0) #1 comdat align 2 {
  %2 = alloca %"class.__gnu_cxx::__normal_iterator.972", align 8
  %3 = alloca ptr, align 8
  store ptr %0, ptr %3, align 8, !tbaa !602
  %4 = load ptr, ptr %3, align 8
  %5 = getelementptr inbounds nuw %"struct.std::_Vector_base.14", ptr %4, i32 0, i32 0
  %6 = getelementptr inbounds nuw %"struct.std::_Vector_base<std::reference_wrapper<duckdb::PhysicalOperator>, std::allocator<std::reference_wrapper<duckdb::PhysicalOperator>>>::_Vector_impl_data", ptr %5, i32 0, i32 1
  call void @_ZN9__gnu_cxx17__normal_iteratorIPKSt17reference_wrapperIN6duckdb16PhysicalOperatorEESt6vectorIS4_SaIS4_EEEC2ERKS6_(ptr noundef nonnull align 8 dereferenceable(8) %2, ptr noundef nonnull align 8 dereferenceable(8) %6) #24
  %7 = getelementptr inbounds nuw %"class.__gnu_cxx::__normal_iterator.972", ptr %2, i32 0, i32 0
  %8 = load ptr, ptr %7, align 8
  ret ptr %8
}

; Function Attrs: mustprogress nounwind uwtable
define linkonce_odr ptr @_ZNKSt6vectorISt17reference_wrapperIN6duckdb16PhysicalOperatorEESaIS3_EE5beginEv(ptr noundef nonnull align 8 dereferenceable(24) %0) #1 comdat align 2 {
  %2 = alloca %"class.__gnu_cxx::__normal_iterator.972", align 8
  %3 = alloca ptr, align 8
  store ptr %0, ptr %3, align 8, !tbaa !602
  %4 = load ptr, ptr %3, align 8
  %5 = getelementptr inbounds nuw %"struct.std::_Vector_base.14", ptr %4, i32 0, i32 0
  %6 = getelementptr inbounds nuw %"struct.std::_Vector_base<std::reference_wrapper<duckdb::PhysicalOperator>, std::allocator<std::reference_wrapper<duckdb::PhysicalOperator>>>::_Vector_impl_data", ptr %5, i32 0, i32 0
  call void @_ZN9__gnu_cxx17__normal_iteratorIPKSt17reference_wrapperIN6duckdb16PhysicalOperatorEESt6vectorIS4_SaIS4_EEEC2ERKS6_(ptr noundef nonnull align 8 dereferenceable(8) %2, ptr noundef nonnull align 8 dereferenceable(8) %6) #24
  %7 = getelementptr inbounds nuw %"class.__gnu_cxx::__normal_iterator.972", ptr %2, i32 0, i32 0
  %8 = load ptr, ptr %7, align 8
  ret ptr %8
}

; Function Attrs: mustprogress nounwind uwtable
define linkonce_odr noundef nonnull align 8 dereferenceable(24) ptr @_ZNK6duckdb16PhysicalOperator8GetTypesEv(ptr noundef nonnull align 8 dereferenceable(128) %0) #1 comdat align 2 {
  %2 = alloca ptr, align 8
  store ptr %0, ptr %2, align 8, !tbaa !92
  %3 = load ptr, ptr %2, align 8
  %4 = getelementptr inbounds nuw %"class.duckdb::PhysicalOperator", ptr %3, i32 0, i32 3
  ret ptr %4
}

; Function Attrs: mustprogress nounwind uwtable
define linkonce_odr noundef nonnull align 8 dereferenceable(128) ptr @_ZNKSt17reference_wrapperIN6duckdb16PhysicalOperatorEE3getEv(ptr noundef nonnull align 8 dereferenceable(8) %0) #1 comdat align 2 {
  %2 = alloca ptr, align 8
  store ptr %0, ptr %2, align 8, !tbaa !604
  %3 = load ptr, ptr %2, align 8
  %4 = getelementptr inbounds nuw %"class.std::reference_wrapper.548", ptr %3, i32 0, i32 0
  %5 = load ptr, ptr %4, align 8, !tbaa !605
  ret ptr %5
}

; Function Attrs: mustprogress uwtable
define linkonce_odr noundef nonnull align 8 dereferenceable(128) ptr @_ZN6duckdb12optional_ptrINS_16PhysicalOperatorELb1EEdeEv(ptr noundef nonnull align 8 dereferenceable(8) %0) #0 comdat align 2 {
  %2 = alloca ptr, align 8
  store ptr %0, ptr %2, align 8, !tbaa !345
  %3 = load ptr, ptr %2, align 8
  call void @_ZNK6duckdb12optional_ptrINS_16PhysicalOperatorELb1EE10CheckValidEv(ptr noundef nonnull align 8 dereferenceable(8) %3)
  %4 = getelementptr inbounds nuw %"class.duckdb::optional_ptr", ptr %3, i32 0, i32 0
  %5 = load ptr, ptr %4, align 8, !tbaa !347
  ret ptr %5
}

; Function Attrs: mustprogress nounwind uwtable
define linkonce_odr noundef zeroext i1 @_ZNKSt6vectorISt17reference_wrapperIN6duckdb16PhysicalOperatorEESaIS3_EE5emptyEv(ptr noundef nonnull align 8 dereferenceable(24) %0) #1 comdat align 2 {
  %2 = alloca ptr, align 8
  %3 = alloca %"class.__gnu_cxx::__normal_iterator.972", align 8
  %4 = alloca %"class.__gnu_cxx::__normal_iterator.972", align 8
  store ptr %0, ptr %2, align 8, !tbaa !602
  %5 = load ptr, ptr %2, align 8
  call void @llvm.lifetime.start.p0(i64 8, ptr %3) #24
  %6 = call ptr @_ZNKSt6vectorISt17reference_wrapperIN6duckdb16PhysicalOperatorEESaIS3_EE5beginEv(ptr noundef nonnull align 8 dereferenceable(24) %5) #24
  %7 = getelementptr inbounds nuw %"class.__gnu_cxx::__normal_iterator.972", ptr %3, i32 0, i32 0
  store ptr %6, ptr %7, align 8
  call void @llvm.lifetime.start.p0(i64 8, ptr %4) #24
  %8 = call ptr @_ZNKSt6vectorISt17reference_wrapperIN6duckdb16PhysicalOperatorEESaIS3_EE3endEv(ptr noundef nonnull align 8 dereferenceable(24) %5) #24
  %9 = getelementptr inbounds nuw %"class.__gnu_cxx::__normal_iterator.972", ptr %4, i32 0, i32 0
  store ptr %8, ptr %9, align 8
  %10 = call noundef zeroext i1 @_ZN9__gnu_cxxeqIPKSt17reference_wrapperIN6duckdb16PhysicalOperatorEESt6vectorIS4_SaIS4_EEEEbRKNS_17__normal_iteratorIT_T0_EESF_(ptr noundef nonnull align 8 dereferenceable(8) %3, ptr noundef nonnull align 8 dereferenceable(8) %4) #24
  call void @llvm.lifetime.end.p0(i64 8, ptr %4) #24
  call void @llvm.lifetime.end.p0(i64 8, ptr %3) #24
  ret i1 %10
}

; Function Attrs: mustprogress uwtable
define void @_ZN6duckdb16PipelineExecutor15InitializeChunkERNS_9DataChunkE(ptr noundef nonnull align 8 dereferenceable(505) %0, ptr noundef nonnull align 8 dereferenceable(64) %1) #0 align 2 {
  %3 = alloca ptr, align 8
  %4 = alloca ptr, align 8
  %5 = alloca ptr, align 8
  store ptr %0, ptr %3, align 8, !tbaa !379
  store ptr %1, ptr %4, align 8, !tbaa !332
  %6 = load ptr, ptr %3, align 8
  call void @llvm.lifetime.start.p0(i64 8, ptr %5) #24
  %7 = getelementptr inbounds nuw %"class.duckdb::PipelineExecutor", ptr %6, i32 0, i32 0
  %8 = load ptr, ptr %7, align 8, !tbaa !790
  %9 = getelementptr inbounds nuw %"class.duckdb::Pipeline", ptr %8, i32 0, i32 5
  %10 = call noundef zeroext i1 @_ZNKSt6vectorISt17reference_wrapperIN6duckdb16PhysicalOperatorEESaIS3_EE5emptyEv(ptr noundef nonnull align 8 dereferenceable(24) %9) #24
  br i1 %10, label %11, label %16

11:                                               ; preds = %2
  %12 = getelementptr inbounds nuw %"class.duckdb::PipelineExecutor", ptr %6, i32 0, i32 0
  %13 = load ptr, ptr %12, align 8, !tbaa !790
  %14 = getelementptr inbounds nuw %"class.duckdb::Pipeline", ptr %13, i32 0, i32 4
  %15 = call noundef nonnull align 8 dereferenceable(128) ptr @_ZN6duckdb12optional_ptrINS_16PhysicalOperatorELb1EEdeEv(ptr noundef nonnull align 8 dereferenceable(8) %14)
  br label %22

16:                                               ; preds = %2
  %17 = getelementptr inbounds nuw %"class.duckdb::PipelineExecutor", ptr %6, i32 0, i32 0
  %18 = load ptr, ptr %17, align 8, !tbaa !790
  %19 = getelementptr inbounds nuw %"class.duckdb::Pipeline", ptr %18, i32 0, i32 5
  %20 = call noundef nonnull align 8 dereferenceable(8) ptr @_ZN6duckdb6vectorISt17reference_wrapperINS_16PhysicalOperatorEELb1EE4backEv(ptr noundef nonnull align 8 dereferenceable(24) %19)
  %21 = call noundef nonnull align 8 dereferenceable(128) ptr @_ZNKSt17reference_wrapperIN6duckdb16PhysicalOperatorEE3getEv(ptr noundef nonnull align 8 dereferenceable(8) %20) #24
  br label %22

22:                                               ; preds = %16, %11
  %23 = phi ptr [ %15, %11 ], [ %21, %16 ]
  store ptr %23, ptr %5, align 8, !tbaa !92
  %24 = load ptr, ptr %4, align 8, !tbaa !332
  %25 = call noundef nonnull align 8 dereferenceable(32) ptr @_ZN6duckdb9Allocator16DefaultAllocatorEv()
  %26 = load ptr, ptr %5, align 8, !tbaa !92
  %27 = call noundef nonnull align 8 dereferenceable(24) ptr @_ZNK6duckdb16PhysicalOperator8GetTypesEv(ptr noundef nonnull align 8 dereferenceable(128) %26)
  call void @_ZN6duckdb9DataChunk10InitializeERNS_9AllocatorERKNS_6vectorINS_11LogicalTypeELb1EEEm(ptr noundef nonnull align 8 dereferenceable(64) %24, ptr noundef nonnull align 8 dereferenceable(32) %25, ptr noundef nonnull align 8 dereferenceable(24) %27, i64 noundef 2048)
  call void @llvm.lifetime.end.p0(i64 8, ptr %5) #24
  ret void
}