; Function Attrs: mustprogress uwtable
define void @_ZN6duckdb16PipelineExecutor15InitializeChunkERNS_9DataChunkE(ptr noundef nonnull readonly align 8 captures(none) dereferenceable(505) %0, ptr noundef nonnull align 8 dereferenceable(64) %1) local_unnamed_addr #0 align 2 {
  %3 = load ptr, ptr %0, align 8, !tbaa !767
  %4 = getelementptr inbounds nuw i8, ptr %3, i64 40
  %5 = load ptr, ptr %4, align 8, !tbaa !159
  %6 = getelementptr inbounds nuw i8, ptr %3, i64 48
  %7 = load ptr, ptr %6, align 8, !tbaa !159
  %8 = icmp eq ptr %5, %7
  br i1 %8, label %9, label %11

9:                                                ; preds = %2
  %10 = getelementptr inbounds nuw i8, ptr %3, i64 32
  tail call void @_ZNK6duckdb12optional_ptrINS_16PhysicalOperatorELb1EE10CheckValidEv(ptr noundef nonnull align 8 dereferenceable(8) %10)
  br label %13

11:                                               ; preds = %2
  %12 = tail call noundef nonnull align 8 dereferenceable(8) ptr @_ZN6duckdb6vectorISt17reference_wrapperINS_16PhysicalOperatorEELb1EE4backEv(ptr noundef nonnull align 8 dereferenceable(24) %4)
  br label %13

13:                                               ; preds = %11, %9
  %.in = phi ptr [ %10, %9 ], [ %12, %11 ]
  %14 = load ptr, ptr %.in, align 8, !tbaa !77
  %15 = tail call noundef nonnull align 8 dereferenceable(32) ptr @_ZN6duckdb9Allocator16DefaultAllocatorEv()
  %16 = getelementptr inbounds nuw i8, ptr %14, i64 40
  tail call void @_ZN6duckdb9DataChunk10InitializeERNS_9AllocatorERKNS_6vectorINS_11LogicalTypeELb1EEEm(ptr noundef nonnull align 8 dereferenceable(64) %1, ptr noundef nonnull align 8 dereferenceable(32) %15, ptr noundef nonnull align 8 dereferenceable(24) %16, i64 noundef 2048)
  ret void
}